; Function Attrs: mustprogress nounwind uwtable
define hidden void @_ZN4lean14max_sharing_fnD2Ev(ptr noundef nonnull align 8 captures(none) dereferenceable(8) %0) unnamed_addr #2 align 2 personality ptr @__gxx_personality_v0 {
  %2 = load ptr, ptr %0, align 8, !tbaa !20
  %.not.i = icmp eq ptr %2, null
  br i1 %.not.i, label %_ZNSt10unique_ptrIN4lean14max_sharing_fn3impESt14default_deleteIS2_EED2Ev.exit, label %_ZNKSt14default_deleteIN4lean14max_sharing_fn3impEEclEPS2_.exit.i

_ZNKSt14default_deleteIN4lean14max_sharing_fn3impEEclEPS2_.exit.i: ; preds = %1
  %3 = getelementptr inbounds nuw i8, ptr %2, i64 56
  tail call void @_ZNSt10_HashtableIN4lean5levelES1_SaIS1_ENSt8__detail9_IdentityESt8equal_toIS1_ENS0_10level_hashENS3_18_Mod_range_hashingENS3_20_Default_ranged_hashENS3_20_Prime_rehash_policyENS3_17_Hashtable_traitsILb1ELb1ELb1EEEED2Ev(ptr noundef nonnull align 8 dereferenceable(56) %3) #12
  tail call void @_ZNSt10_HashtableIN4lean4exprES1_SaIS1_ENSt8__detail9_IdentityENS0_16is_bi_equal_procENS0_9expr_hashENS3_18_Mod_range_hashingENS3_20_Default_ranged_hashENS3_20_Prime_rehash_policyENS3_17_Hashtable_traitsILb1ELb1ELb1EEEED2Ev(ptr noundef nonnull align 8 dereferenceable(112) %2) #12
  tail call void @_ZdlPvm(ptr noundef nonnull %2, i64 noundef 112) #13
  br label %_ZNSt10unique_ptrIN4lean14max_sharing_fn3impESt14default_deleteIS2_EED2Ev.exit

_ZNSt10unique_ptrIN4lean14max_sharing_fn3impESt14default_deleteIS2_EED2Ev.exit: ; preds = %1, %_ZNKSt14default_deleteIN4lean14max_sharing_fn3impEEclEPS2_.exit.i
  store ptr null, ptr %0, align 8, !tbaa !20
  ret void
}